; Function Attrs: inlinehint mustprogress nounwind uwtable
define internal void @_ZZN7rocksdb16WritePreparedTxn16RollbackInternalEvEN25RollbackWriteBatchBuilderD2Ev(ptr noundef nonnull align 8 dereferenceable(312) initializes((0, 8)) %0) unnamed_addr #6 align 2 personality ptr @__gxx_personality_v0 {
  store ptr getelementptr inbounds nuw inrange(-16, 192) (i8, ptr @_ZTVZN7rocksdb16WritePreparedTxn16RollbackInternalEvE25RollbackWriteBatchBuilder, i64 16), ptr %0, align 8, !tbaa !18
  %2 = getelementptr inbounds nuw i8, ptr %0, i64 280
  %3 = load ptr, ptr %2, align 8, !tbaa !139
  %.not.i.i = icmp eq ptr %3, null
  br i1 %.not.i.i, label %_ZN7rocksdb11ReadOptionsD2Ev.exit, label %4

4:                                                ; preds = %1
  %5 = getelementptr inbounds nuw i8, ptr %0, i64 264
  %6 = invoke noundef zeroext i1 %3(ptr noundef nonnull align 8 dereferenceable(32) %5, ptr noundef nonnull align 8 dereferenceable(32) %5, i32 noundef 3)
          to label %_ZN7rocksdb11ReadOptionsD2Ev.exit unwind label %7

7:                                                ; preds = %4
  %8 = landingpad { ptr, i32 }
          catch ptr null
  %9 = extractvalue { ptr, i32 } %8, 0
  tail call void @__clang_call_terminate(ptr %9) #27
  unreachable

_ZN7rocksdb11ReadOptionsD2Ev.exit:                ; preds = %1, %4
  %10 = getelementptr inbounds nuw i8, ptr %0, i64 88
  %11 = getelementptr inbounds nuw i8, ptr %0, i64 104
  %12 = load ptr, ptr %11, align 8, !tbaa !337
  invoke void @_ZNSt8_Rb_treeIjSt4pairIKjSt3setIN7rocksdb5SliceENS3_13SetComparatorESaIS4_EEESt10_Select1stIS8_ESt4lessIjESaIS8_EE8_M_eraseEPSt13_Rb_tree_nodeIS8_E(ptr noundef nonnull align 8 dereferenceable(48) %10, ptr noundef %12)
          to label %_ZNSt3mapIjSt3setIN7rocksdb5SliceENS1_13SetComparatorESaIS2_EESt4lessIjESaISt4pairIKjS5_EEED2Ev.exit unwind label %13

13:                                               ; preds = %_ZN7rocksdb11ReadOptionsD2Ev.exit
  %14 = landingpad { ptr, i32 }
          catch ptr null
  %15 = extractvalue { ptr, i32 } %14, 0
  tail call void @__clang_call_terminate(ptr %15) #27
  unreachable

_ZNSt3mapIjSt3setIN7rocksdb5SliceENS1_13SetComparatorESaIS2_EESt4lessIjESaISt4pairIKjS5_EEED2Ev.exit: ; preds = %_ZN7rocksdb11ReadOptionsD2Ev.exit
  %16 = getelementptr inbounds nuw i8, ptr %0, i64 24
  store ptr getelementptr inbounds nuw inrange(-16, 32) (i8, ptr @_ZTVN7rocksdb28WritePreparedTxnReadCallbackE, i64 16), ptr %16, align 8, !tbaa !18
  tail call void @_ZN7rocksdb10WriteBatch7HandlerD2Ev(ptr noundef nonnull align 8 dereferenceable(8) %0) #26
  ret void
}